target datalayout = "e-m:e-p270:32:32-p271:32:32-p272:64:64-i64:64-i128:128-f80:128-n8:16:32:64-S128"
target triple = "x86_64-pc-linux-gnu"

; Function Attrs: nounwind uwtable
define i32 @hash(i32 noundef %0, ptr noundef %1, i32 noundef %2) #0 {
  %4 = alloca i32, align 4
  %5 = alloca ptr, align 8
  %6 = alloca i32, align 4
  %7 = alloca i32, align 4
  %8 = alloca i32, align 4
  store i32 %0, ptr %4, align 4
  store ptr %1, ptr %5, align 8
  store i32 %2, ptr %6, align 4
  %9 = load i32, ptr %4, align 4
  store i32 %9, ptr %8, align 4
  %10 = load i32, ptr %6, align 4
  %11 = sub nsw i32 %10, 1
  store i32 %11, ptr %7, align 4
  br label %12

12:                                               ; preds = %38, %3
  %13 = load i32, ptr %7, align 4
  %14 = icmp sgt i32 %13, 0
  br i1 %14, label %15, label %41

15:                                               ; preds = %12
  %16 = load ptr, ptr %5, align 8
  %17 = load i8, ptr %16, align 1
  %18 = zext i8 %17 to i64
  %19 = getelementptr inbounds [256 x i32], ptr @byte_to_int32, i64 0, i64 %18
  %20 = load i32, ptr %19, align 4
  %21 = load i32, ptr %7, align 4
  %22 = srem i32 %21, 32
  %23 = shl i32 %20, %22
  %24 = load ptr, ptr %5, align 8
  %25 = load i8, ptr %24, align 1
  %26 = zext i8 %25 to i64
  %27 = getelementptr inbounds [256 x i32], ptr @byte_to_int32, i64 0, i64 %26
  %28 = load i32, ptr %27, align 4
  %29 = load i32, ptr %7, align 4
  %30 = srem i32 %29, 32
  %31 = sub nsw i32 32, %30
  %32 = lshr i32 %28, %31
  %33 = or i32 %23, %32
  %34 = load i32, ptr %8, align 4
  %35 = xor i32 %34, %33
  store i32 %35, ptr %8, align 4
  %36 = load ptr, ptr %5, align 8
  %37 = getelementptr inbounds i8, ptr %36, i32 1
  store ptr %37, ptr %5, align 8
  br label %38

38:                                               ; preds = %15
  %39 = load i32, ptr %7, align 4
  %40 = add nsw i32 %39, -1
  store i32 %40, ptr %7, align 4
  br label %12

41:                                               ; preds = %12
  %42 = load ptr, ptr %5, align 8
  %43 = load i8, ptr %42, align 1
  %44 = zext i8 %43 to i64
  %45 = getelementptr inbounds [256 x i32], ptr @byte_to_int32, i64 0, i64 %44
  %46 = load i32, ptr %45, align 4
  %47 = load i32, ptr %8, align 4
  %48 = xor i32 %47, %46
  store i32 %48, ptr %8, align 4
  %49 = load i32, ptr %8, align 4
  ret i32 %49
}