; Function Attrs: nofree norecurse nosync nounwind memory(read, inaccessiblemem: none) uwtable
define i32 @hash(i32 noundef %0, ptr nocapture noundef readonly %1, i32 noundef %2) local_unnamed_addr #0 {
  %4 = icmp sgt i32 %2, 1
  br i1 %4, label %.lr.ph, label %._crit_edge

.lr.ph:                                           ; preds = %3, %.lr.ph
  %.016 = phi i32 [ %10, %.lr.ph ], [ %0, %3 ]
  %.012.in15 = phi i32 [ %.012, %.lr.ph ], [ %2, %3 ]
  %.01314 = phi ptr [ %11, %.lr.ph ], [ %1, %3 ]
  %.012 = add nsw i32 %.012.in15, -1
  %5 = load i8, ptr %.01314, align 1
  %6 = zext i8 %5 to i64
  %7 = getelementptr inbounds [256 x i32], ptr @byte_to_int32, i64 0, i64 %6
  %8 = load i32, ptr %7, align 4
  %9 = tail call i32 @llvm.fshl.i32(i32 %8, i32 %8, i32 %.012)
  %10 = xor i32 %9, %.016
  %11 = getelementptr inbounds i8, ptr %.01314, i64 1
  %12 = icmp ugt i32 %.012.in15, 2
  br i1 %12, label %.lr.ph, label %._crit_edge.loopexit

._crit_edge.loopexit:                             ; preds = %.lr.ph
  %13 = zext nneg i32 %2 to i64
  %14 = getelementptr i8, ptr %1, i64 %13
  %scevgep = getelementptr i8, ptr %14, i64 -1
  br label %._crit_edge

._crit_edge:                                      ; preds = %._crit_edge.loopexit, %3
  %.013.lcssa = phi ptr [ %1, %3 ], [ %scevgep, %._crit_edge.loopexit ]
  %.0.lcssa = phi i32 [ %0, %3 ], [ %10, %._crit_edge.loopexit ]
  %15 = load i8, ptr %.013.lcssa, align 1
  %16 = zext i8 %15 to i64
  %17 = getelementptr inbounds [256 x i32], ptr @byte_to_int32, i64 0, i64 %16
  %18 = load i32, ptr %17, align 4
  %19 = xor i32 %18, %.0.lcssa
  ret i32 %19
}